target datalayout = "e-m:e-p270:32:32-p271:32:32-p272:64:64-i64:64-i128:128-f80:128-n8:16:32:64-S128"
target triple = "x86_64-pc-linux-gnu"

%struct.AVFilterGraph = type { ptr, ptr, i32, ptr, i32, i32, ptr, ptr, ptr }
%struct.AVFilterContext = type { ptr, ptr, ptr, ptr, ptr, i32, ptr, ptr, i32, ptr, ptr, i32, i32, ptr, ptr, ptr, ptr, i32, ptr, i32, i32 }
%struct.FFFilterContext = type { %struct.AVFilterContext, ptr, i32, i32, ptr, ptr, ptr }

@.str.3 = private unnamed_addr constant [30 x i8] c"Assertion %s failed at %s:%d\0A\00", align 1
@.str.4 = private unnamed_addr constant [18 x i8] c"graph->nb_filters\00", align 1
@.str.5 = private unnamed_addr constant [28 x i8] c"libavfilter/avfiltergraph.c\00", align 1

; Function Attrs: inlinehint nounwind uwtable
define internal ptr @fffilterctx(ptr noundef %0) #3 {
  %2 = alloca ptr, align 8
  store ptr %0, ptr %2, align 8, !tbaa !18
  %3 = load ptr, ptr %2, align 8, !tbaa !18
  ret ptr %3
}

; Function Attrs: nounwind uwtable
define i32 @ff_filter_graph_run_once(ptr noundef %0) #0 {
  %2 = alloca i32, align 4
  %3 = alloca ptr, align 8
  %4 = alloca ptr, align 8
  %5 = alloca i32, align 4
  %6 = alloca ptr, align 8
  %7 = alloca i32, align 4
  store ptr %0, ptr %3, align 8, !tbaa !9
  call void @llvm.lifetime.start.p0(i64 8, ptr %4) #11
  call void @llvm.lifetime.start.p0(i64 4, ptr %5) #11
  br label %8

8:                                                ; preds = %1
  %9 = load ptr, ptr %3, align 8, !tbaa !9
  %10 = getelementptr inbounds nuw %struct.AVFilterGraph, ptr %9, i32 0, i32 2
  %11 = load i32, ptr %10, align 8, !tbaa !21
  %12 = icmp ne i32 %11, 0
  br i1 %12, label %14, label %13

13:                                               ; preds = %8
  call void (ptr, i32, ptr, ...) @av_log(ptr noundef null, i32 noundef 0, ptr noundef @.str.3, ptr noundef @.str.4, ptr noundef @.str.5, i32 noundef 1478)
  call void @abort() #13
  unreachable

14:                                               ; preds = %8
  br label %15

15:                                               ; preds = %14
  br label %16

16:                                               ; preds = %15
  %17 = load ptr, ptr %3, align 8, !tbaa !9
  %18 = getelementptr inbounds nuw %struct.AVFilterGraph, ptr %17, i32 0, i32 1
  %19 = load ptr, ptr %18, align 8, !tbaa !22
  %20 = getelementptr inbounds ptr, ptr %19, i64 0
  %21 = load ptr, ptr %20, align 8, !tbaa !18
  %22 = call ptr @fffilterctx(ptr noundef %21)
  store ptr %22, ptr %4, align 8, !tbaa !115
  store i32 1, ptr %5, align 4, !tbaa !20
  br label %23

23:                                               ; preds = %48, %16
  %24 = load i32, ptr %5, align 4, !tbaa !20
  %25 = load ptr, ptr %3, align 8, !tbaa !9
  %26 = getelementptr inbounds nuw %struct.AVFilterGraph, ptr %25, i32 0, i32 2
  %27 = load i32, ptr %26, align 8, !tbaa !21
  %28 = icmp ult i32 %24, %27
  br i1 %28, label %29, label %51

29:                                               ; preds = %23
  call void @llvm.lifetime.start.p0(i64 8, ptr %6) #11
  %30 = load ptr, ptr %3, align 8, !tbaa !9
  %31 = getelementptr inbounds nuw %struct.AVFilterGraph, ptr %30, i32 0, i32 1
  %32 = load ptr, ptr %31, align 8, !tbaa !22
  %33 = load i32, ptr %5, align 4, !tbaa !20
  %34 = zext i32 %33 to i64
  %35 = getelementptr inbounds nuw ptr, ptr %32, i64 %34
  %36 = load ptr, ptr %35, align 8, !tbaa !18
  %37 = call ptr @fffilterctx(ptr noundef %36)
  store ptr %37, ptr %6, align 8, !tbaa !115
  %38 = load ptr, ptr %6, align 8, !tbaa !115
  %39 = getelementptr inbounds nuw %struct.FFFilterContext, ptr %38, i32 0, i32 3
  %40 = load i32, ptr %39, align 4, !tbaa !139
  %41 = load ptr, ptr %4, align 8, !tbaa !115
  %42 = getelementptr inbounds nuw %struct.FFFilterContext, ptr %41, i32 0, i32 3
  %43 = load i32, ptr %42, align 4, !tbaa !139
  %44 = icmp ugt i32 %40, %43
  br i1 %44, label %45, label %47

45:                                               ; preds = %29
  %46 = load ptr, ptr %6, align 8, !tbaa !115
  store ptr %46, ptr %4, align 8, !tbaa !115
  br label %47

47:                                               ; preds = %45, %29
  call void @llvm.lifetime.end.p0(i64 8, ptr %6) #11
  br label %48

48:                                               ; preds = %47
  %49 = load i32, ptr %5, align 4, !tbaa !20
  %50 = add i32 %49, 1
  store i32 %50, ptr %5, align 4, !tbaa !20
  br label %23, !llvm.loop !142

51:                                               ; preds = %23
  %52 = load ptr, ptr %4, align 8, !tbaa !115
  %53 = getelementptr inbounds nuw %struct.FFFilterContext, ptr %52, i32 0, i32 3
  %54 = load i32, ptr %53, align 4, !tbaa !139
  %55 = icmp ne i32 %54, 0
  br i1 %55, label %57, label %56

56:                                               ; preds = %51
  store i32 -11, ptr %2, align 4
  store i32 1, ptr %7, align 4
  br label %61

57:                                               ; preds = %51
  %58 = load ptr, ptr %4, align 8, !tbaa !115
  %59 = getelementptr inbounds nuw %struct.FFFilterContext, ptr %58, i32 0, i32 0
  %60 = call i32 @ff_filter_activate(ptr noundef %59)
  store i32 %60, ptr %2, align 4
  store i32 1, ptr %7, align 4
  br label %61

61:                                               ; preds = %57, %56
  call void @llvm.lifetime.end.p0(i64 4, ptr %5) #11
  call void @llvm.lifetime.end.p0(i64 8, ptr %4) #11
  %62 = load i32, ptr %2, align 4
  ret i32 %62
}