; Function Attrs: nounwind uwtable
define i32 @ff_filter_graph_run_once(ptr noundef readonly captures(none) %0) local_unnamed_addr #0 {
  %2 = getelementptr inbounds nuw i8, ptr %0, i64 16
  %3 = load i32, ptr %2, align 8, !tbaa !14
  %.not = icmp eq i32 %3, 0
  br i1 %.not, label %4, label %5

4:                                                ; preds = %1
  tail call void (ptr, i32, ptr, ...) @av_log(ptr noundef null, i32 noundef 0, ptr noundef nonnull @.str.3, ptr noundef nonnull @.str.4, ptr noundef nonnull @.str.5, i32 noundef 1478) #14
  tail call void @abort() #16
  unreachable

5:                                                ; preds = %1
  %6 = getelementptr inbounds nuw i8, ptr %0, i64 8
  %7 = load ptr, ptr %6, align 8, !tbaa !15
  %8 = load ptr, ptr %7, align 8, !tbaa !18
  %.not17 = icmp eq i32 %3, 1
  br i1 %.not17, label %._crit_edge, label %.lr.ph.preheader

.lr.ph.preheader:                                 ; preds = %5
  %wide.trip.count = zext i32 %3 to i64
  br label %.lr.ph

.lr.ph:                                           ; preds = %.lr.ph.preheader, %.lr.ph
  %indvars.iv = phi i64 [ 1, %.lr.ph.preheader ], [ %indvars.iv.next, %.lr.ph ]
  %.01315 = phi ptr [ %8, %.lr.ph.preheader ], [ %spec.select, %.lr.ph ]
  %9 = getelementptr inbounds nuw ptr, ptr %7, i64 %indvars.iv
  %10 = load ptr, ptr %9, align 8, !tbaa !18
  %11 = getelementptr inbounds nuw i8, ptr %10, i64 164
  %12 = load i32, ptr %11, align 4, !tbaa !206
  %13 = getelementptr inbounds nuw i8, ptr %.01315, i64 164
  %14 = load i32, ptr %13, align 4, !tbaa !206
  %15 = icmp ugt i32 %12, %14
  %spec.select = select i1 %15, ptr %10, ptr %.01315
  %indvars.iv.next = add nuw nsw i64 %indvars.iv, 1
  %exitcond.not = icmp eq i64 %indvars.iv.next, %wide.trip.count
  br i1 %exitcond.not, label %._crit_edge, label %.lr.ph, !llvm.loop !209

._crit_edge:                                      ; preds = %.lr.ph, %5
  %.013.lcssa = phi ptr [ %8, %5 ], [ %spec.select, %.lr.ph ]
  %16 = getelementptr inbounds nuw i8, ptr %.013.lcssa, i64 164
  %17 = load i32, ptr %16, align 4, !tbaa !206
  %.not14 = icmp eq i32 %17, 0
  br i1 %.not14, label %20, label %18

18:                                               ; preds = %._crit_edge
  %19 = tail call i32 @ff_filter_activate(ptr noundef nonnull %.013.lcssa) #14
  br label %20

20:                                               ; preds = %._crit_edge, %18
  %.0 = phi i32 [ %19, %18 ], [ -11, %._crit_edge ]
  ret i32 %.0
}